target datalayout = "e-m:e-p270:32:32-p271:32:32-p272:64:64-i64:64-i128:128-f80:128-n8:16:32:64-S128"
target triple = "x86_64-pc-linux-gnu"

%struct.AVFilterLink = type { ptr, ptr, ptr, ptr, i32, i32, i32, i32, %struct.AVRational, i32, i32, i32, %struct.AVChannelLayout, %struct.AVRational, ptr, i32, %struct.AVFilterFormatsConfig, %struct.AVFilterFormatsConfig }
%struct.AVChannelLayout = type { i32, i32, %union.anon, ptr }
%union.anon = type { i64 }
%struct.AVRational = type { i32, i32 }
%struct.AVFilterFormatsConfig = type { ptr, ptr, ptr, ptr, ptr }

; Function Attrs: nounwind uwtable
define i32 @ff_scale_adjust_dimensions(ptr noundef %0, ptr noundef %1, ptr noundef %2, i32 noundef %3, i32 noundef %4, double noundef %5) #0 {
  %7 = alloca i32, align 4
  %8 = alloca ptr, align 8
  %9 = alloca ptr, align 8
  %10 = alloca ptr, align 8
  %11 = alloca i32, align 4
  %12 = alloca i32, align 4
  %13 = alloca double, align 8
  %14 = alloca i64, align 8
  %15 = alloca i64, align 8
  %16 = alloca i32, align 4
  %17 = alloca i32, align 4
  %18 = alloca i64, align 8
  %19 = alloca i64, align 8
  %20 = alloca i32, align 4
  store ptr %0, ptr %8, align 8, !tbaa !10
  store ptr %1, ptr %9, align 8, !tbaa !12
  store ptr %2, ptr %10, align 8, !tbaa !12
  store i32 %3, ptr %11, align 4, !tbaa !38
  store i32 %4, ptr %12, align 4, !tbaa !38
  store double %5, ptr %13, align 8, !tbaa !29
  call void @llvm.lifetime.start.p0(i64 8, ptr %14) #4
  call void @llvm.lifetime.start.p0(i64 8, ptr %15) #4
  call void @llvm.lifetime.start.p0(i64 4, ptr %16) #4
  call void @llvm.lifetime.start.p0(i64 4, ptr %17) #4
  %21 = load ptr, ptr %9, align 8, !tbaa !12
  %22 = load i32, ptr %21, align 4, !tbaa !38
  %23 = sext i32 %22 to i64
  store i64 %23, ptr %14, align 8, !tbaa !39
  %24 = load ptr, ptr %10, align 8, !tbaa !12
  %25 = load i32, ptr %24, align 4, !tbaa !38
  %26 = sext i32 %25 to i64
  store i64 %26, ptr %15, align 8, !tbaa !39
  store i32 1, ptr %16, align 4, !tbaa !38
  store i32 1, ptr %17, align 4, !tbaa !38
  %27 = load i64, ptr %14, align 8, !tbaa !39
  %28 = icmp slt i64 %27, -1
  br i1 %28, label %29, label %33

29:                                               ; preds = %6
  %30 = load i64, ptr %14, align 8, !tbaa !39
  %31 = sub nsw i64 0, %30
  %32 = trunc i64 %31 to i32
  store i32 %32, ptr %16, align 4, !tbaa !38
  br label %33

33:                                               ; preds = %29, %6
  %34 = load i64, ptr %15, align 8, !tbaa !39
  %35 = icmp slt i64 %34, -1
  br i1 %35, label %36, label %40

36:                                               ; preds = %33
  %37 = load i64, ptr %15, align 8, !tbaa !39
  %38 = sub nsw i64 0, %37
  %39 = trunc i64 %38 to i32
  store i32 %39, ptr %17, align 4, !tbaa !38
  br label %40

40:                                               ; preds = %36, %33
  %41 = load i64, ptr %14, align 8, !tbaa !39
  %42 = icmp slt i64 %41, 0
  br i1 %42, label %43, label %58

43:                                               ; preds = %40
  %44 = load i64, ptr %15, align 8, !tbaa !39
  %45 = icmp slt i64 %44, 0
  br i1 %45, label %46, label %58

46:                                               ; preds = %43
  %47 = load ptr, ptr %8, align 8, !tbaa !10
  %48 = getelementptr inbounds nuw %struct.AVFilterLink, ptr %47, i32 0, i32 6
  %49 = load i32, ptr %48, align 8, !tbaa !28
  %50 = sitofp i32 %49 to double
  %51 = load double, ptr %13, align 8, !tbaa !29
  %52 = fmul nsz double %50, %51
  %53 = fptosi double %52 to i64
  store i64 %53, ptr %14, align 8, !tbaa !39
  %54 = load ptr, ptr %8, align 8, !tbaa !10
  %55 = getelementptr inbounds nuw %struct.AVFilterLink, ptr %54, i32 0, i32 7
  %56 = load i32, ptr %55, align 4, !tbaa !31
  %57 = sext i32 %56 to i64
  store i64 %57, ptr %15, align 8, !tbaa !39
  br label %58

58:                                               ; preds = %46, %43, %40
  %59 = load i64, ptr %14, align 8, !tbaa !39
  %60 = icmp slt i64 %59, 0
  br i1 %60, label %61, label %80

61:                                               ; preds = %58
  %62 = load i64, ptr %15, align 8, !tbaa !39
  %63 = load ptr, ptr %8, align 8, !tbaa !10
  %64 = getelementptr inbounds nuw %struct.AVFilterLink, ptr %63, i32 0, i32 6
  %65 = load i32, ptr %64, align 8, !tbaa !28
  %66 = sitofp i32 %65 to double
  %67 = load double, ptr %13, align 8, !tbaa !29
  %68 = fmul nsz double %66, %67
  %69 = fptosi double %68 to i64
  %70 = load ptr, ptr %8, align 8, !tbaa !10
  %71 = getelementptr inbounds nuw %struct.AVFilterLink, ptr %70, i32 0, i32 7
  %72 = load i32, ptr %71, align 4, !tbaa !31
  %73 = load i32, ptr %16, align 4, !tbaa !38
  %74 = mul nsw i32 %72, %73
  %75 = sext i32 %74 to i64
  %76 = call i64 @av_rescale(i64 noundef %62, i64 noundef %69, i64 noundef %75) #5
  %77 = load i32, ptr %16, align 4, !tbaa !38
  %78 = sext i32 %77 to i64
  %79 = mul nsw i64 %76, %78
  store i64 %79, ptr %14, align 8, !tbaa !39
  br label %80

80:                                               ; preds = %61, %58
  %81 = load i64, ptr %15, align 8, !tbaa !39
  %82 = icmp slt i64 %81, 0
  br i1 %82, label %83, label %103

83:                                               ; preds = %80
  %84 = load i64, ptr %14, align 8, !tbaa !39
  %85 = load ptr, ptr %8, align 8, !tbaa !10
  %86 = getelementptr inbounds nuw %struct.AVFilterLink, ptr %85, i32 0, i32 7
  %87 = load i32, ptr %86, align 4, !tbaa !31
  %88 = sext i32 %87 to i64
  %89 = load ptr, ptr %8, align 8, !tbaa !10
  %90 = getelementptr inbounds nuw %struct.AVFilterLink, ptr %89, i32 0, i32 6
  %91 = load i32, ptr %90, align 8, !tbaa !28
  %92 = sitofp i32 %91 to double
  %93 = load double, ptr %13, align 8, !tbaa !29
  %94 = fmul nsz double %92, %93
  %95 = load i32, ptr %17, align 4, !tbaa !38
  %96 = sitofp i32 %95 to double
  %97 = fmul nsz double %94, %96
  %98 = fptosi double %97 to i64
  %99 = call i64 @av_rescale(i64 noundef %84, i64 noundef %88, i64 noundef %98) #5
  %100 = load i32, ptr %17, align 4, !tbaa !38
  %101 = sext i32 %100 to i64
  %102 = mul nsw i64 %99, %101
  store i64 %102, ptr %15, align 8, !tbaa !39
  br label %103

103:                                              ; preds = %83, %80
  %104 = load i32, ptr %11, align 4, !tbaa !38
  %105 = icmp ne i32 %104, 0
  br i1 %105, label %106, label %231

106:                                              ; preds = %103
  call void @llvm.lifetime.start.p0(i64 8, ptr %18) #4
  %107 = load i64, ptr %15, align 8, !tbaa !39
  %108 = load ptr, ptr %8, align 8, !tbaa !10
  %109 = getelementptr inbounds nuw %struct.AVFilterLink, ptr %108, i32 0, i32 6
  %110 = load i32, ptr %109, align 8, !tbaa !28
  %111 = sitofp i32 %110 to double
  %112 = load double, ptr %13, align 8, !tbaa !29
  %113 = fmul nsz double %111, %112
  %114 = fptosi double %113 to i64
  %115 = load ptr, ptr %8, align 8, !tbaa !10
  %116 = getelementptr inbounds nuw %struct.AVFilterLink, ptr %115, i32 0, i32 7
  %117 = load i32, ptr %116, align 4, !tbaa !31
  %118 = sext i32 %117 to i64
  %119 = load i32, ptr %12, align 4, !tbaa !38
  %120 = sext i32 %119 to i64
  %121 = mul nsw i64 %118, %120
  %122 = call i64 @av_rescale(i64 noundef %107, i64 noundef %114, i64 noundef %121) #5
  %123 = load i32, ptr %12, align 4, !tbaa !38
  %124 = sext i32 %123 to i64
  %125 = mul nsw i64 %122, %124
  store i64 %125, ptr %18, align 8, !tbaa !39
  call void @llvm.lifetime.start.p0(i64 8, ptr %19) #4
  %126 = load i64, ptr %14, align 8, !tbaa !39
  %127 = load ptr, ptr %8, align 8, !tbaa !10
  %128 = getelementptr inbounds nuw %struct.AVFilterLink, ptr %127, i32 0, i32 7
  %129 = load i32, ptr %128, align 4, !tbaa !31
  %130 = sext i32 %129 to i64
  %131 = load ptr, ptr %8, align 8, !tbaa !10
  %132 = getelementptr inbounds nuw %struct.AVFilterLink, ptr %131, i32 0, i32 6
  %133 = load i32, ptr %132, align 8, !tbaa !28
  %134 = sitofp i32 %133 to double
  %135 = load double, ptr %13, align 8, !tbaa !29
  %136 = fmul nsz double %134, %135
  %137 = load i32, ptr %12, align 4, !tbaa !38
  %138 = sext i32 %137 to i64
  %139 = sitofp i64 %138 to double
  %140 = fmul nsz double %136, %139
  %141 = fptosi double %140 to i64
  %142 = call i64 @av_rescale(i64 noundef %126, i64 noundef %130, i64 noundef %141) #5
  %143 = load i32, ptr %12, align 4, !tbaa !38
  %144 = sext i32 %143 to i64
  %145 = mul nsw i64 %142, %144
  store i64 %145, ptr %19, align 8, !tbaa !39
  %146 = load i32, ptr %11, align 4, !tbaa !38
  %147 = icmp eq i32 %146, 1
  br i1 %147, label %148, label %185

148:                                              ; preds = %106
  %149 = load i64, ptr %18, align 8, !tbaa !39
  %150 = load i64, ptr %14, align 8, !tbaa !39
  %151 = icmp sgt i64 %149, %150
  br i1 %151, label %152, label %154

152:                                              ; preds = %148
  %153 = load i64, ptr %14, align 8, !tbaa !39
  br label %156

154:                                              ; preds = %148
  %155 = load i64, ptr %18, align 8, !tbaa !39
  br label %156

156:                                              ; preds = %154, %152
  %157 = phi i64 [ %153, %152 ], [ %155, %154 ]
  store i64 %157, ptr %14, align 8, !tbaa !39
  %158 = load i64, ptr %19, align 8, !tbaa !39
  %159 = load i64, ptr %15, align 8, !tbaa !39
  %160 = icmp sgt i64 %158, %159
  br i1 %160, label %161, label %163

161:                                              ; preds = %156
  %162 = load i64, ptr %15, align 8, !tbaa !39
  br label %165

163:                                              ; preds = %156
  %164 = load i64, ptr %19, align 8, !tbaa !39
  br label %165

165:                                              ; preds = %163, %161
  %166 = phi i64 [ %162, %161 ], [ %164, %163 ]
  store i64 %166, ptr %15, align 8, !tbaa !39
  %167 = load i32, ptr %12, align 4, !tbaa !38
  %168 = icmp sgt i32 %167, 1
  br i1 %168, label %169, label %184

169:                                              ; preds = %165
  %170 = load i64, ptr %14, align 8, !tbaa !39
  %171 = load i32, ptr %12, align 4, !tbaa !38
  %172 = sext i32 %171 to i64
  %173 = sdiv i64 %170, %172
  %174 = load i32, ptr %12, align 4, !tbaa !38
  %175 = sext i32 %174 to i64
  %176 = mul nsw i64 %173, %175
  store i64 %176, ptr %14, align 8, !tbaa !39
  %177 = load i64, ptr %15, align 8, !tbaa !39
  %178 = load i32, ptr %12, align 4, !tbaa !38
  %179 = sext i32 %178 to i64
  %180 = sdiv i64 %177, %179
  %181 = load i32, ptr %12, align 4, !tbaa !38
  %182 = sext i32 %181 to i64
  %183 = mul nsw i64 %180, %182
  store i64 %183, ptr %15, align 8, !tbaa !39
  br label %184

184:                                              ; preds = %169, %165
  br label %230

185:                                              ; preds = %106
  %186 = load i64, ptr %18, align 8, !tbaa !39
  %187 = load i64, ptr %14, align 8, !tbaa !39
  %188 = icmp sgt i64 %186, %187
  br i1 %188, label %189, label %191

189:                                              ; preds = %185
  %190 = load i64, ptr %18, align 8, !tbaa !39
  br label %193

191:                                              ; preds = %185
  %192 = load i64, ptr %14, align 8, !tbaa !39
  br label %193

193:                                              ; preds = %191, %189
  %194 = phi i64 [ %190, %189 ], [ %192, %191 ]
  store i64 %194, ptr %14, align 8, !tbaa !39
  %195 = load i64, ptr %19, align 8, !tbaa !39
  %196 = load i64, ptr %15, align 8, !tbaa !39
  %197 = icmp sgt i64 %195, %196
  br i1 %197, label %198, label %200

198:                                              ; preds = %193
  %199 = load i64, ptr %19, align 8, !tbaa !39
  br label %202

200:                                              ; preds = %193
  %201 = load i64, ptr %15, align 8, !tbaa !39
  br label %202

202:                                              ; preds = %200, %198
  %203 = phi i64 [ %199, %198 ], [ %201, %200 ]
  store i64 %203, ptr %15, align 8, !tbaa !39
  %204 = load i32, ptr %12, align 4, !tbaa !38
  %205 = icmp sgt i32 %204, 1
  br i1 %205, label %206, label %229

206:                                              ; preds = %202
  %207 = load i64, ptr %14, align 8, !tbaa !39
  %208 = load i32, ptr %12, align 4, !tbaa !38
  %209 = sext i32 %208 to i64
  %210 = add nsw i64 %207, %209
  %211 = sub nsw i64 %210, 1
  %212 = load i32, ptr %12, align 4, !tbaa !38
  %213 = sext i32 %212 to i64
  %214 = sdiv i64 %211, %213
  %215 = load i32, ptr %12, align 4, !tbaa !38
  %216 = sext i32 %215 to i64
  %217 = mul nsw i64 %214, %216
  store i64 %217, ptr %14, align 8, !tbaa !39
  %218 = load i64, ptr %15, align 8, !tbaa !39
  %219 = load i32, ptr %12, align 4, !tbaa !38
  %220 = sext i32 %219 to i64
  %221 = add nsw i64 %218, %220
  %222 = sub nsw i64 %221, 1
  %223 = load i32, ptr %12, align 4, !tbaa !38
  %224 = sext i32 %223 to i64
  %225 = sdiv i64 %222, %224
  %226 = load i32, ptr %12, align 4, !tbaa !38
  %227 = sext i32 %226 to i64
  %228 = mul nsw i64 %225, %227
  store i64 %228, ptr %15, align 8, !tbaa !39
  br label %229

229:                                              ; preds = %206, %202
  br label %230

230:                                              ; preds = %229, %184
  call void @llvm.lifetime.end.p0(i64 8, ptr %19) #4
  call void @llvm.lifetime.end.p0(i64 8, ptr %18) #4
  br label %231

231:                                              ; preds = %230, %103
  %232 = load i64, ptr %14, align 8, !tbaa !39
  %233 = trunc i64 %232 to i32
  %234 = sext i32 %233 to i64
  %235 = load i64, ptr %14, align 8, !tbaa !39
  %236 = icmp ne i64 %234, %235
  br i1 %236, label %243, label %237

237:                                              ; preds = %231
  %238 = load i64, ptr %15, align 8, !tbaa !39
  %239 = trunc i64 %238 to i32
  %240 = sext i32 %239 to i64
  %241 = load i64, ptr %15, align 8, !tbaa !39
  %242 = icmp ne i64 %240, %241
  br i1 %242, label %243, label %244

243:                                              ; preds = %237, %231
  store i32 -22, ptr %7, align 4
  store i32 1, ptr %20, align 4
  br label %251

244:                                              ; preds = %237
  %245 = load i64, ptr %14, align 8, !tbaa !39
  %246 = trunc i64 %245 to i32
  %247 = load ptr, ptr %9, align 8, !tbaa !12
  store i32 %246, ptr %247, align 4, !tbaa !38
  %248 = load i64, ptr %15, align 8, !tbaa !39
  %249 = trunc i64 %248 to i32
  %250 = load ptr, ptr %10, align 8, !tbaa !12
  store i32 %249, ptr %250, align 4, !tbaa !38
  store i32 0, ptr %7, align 4
  store i32 1, ptr %20, align 4
  br label %251

251:                                              ; preds = %244, %243
  call void @llvm.lifetime.end.p0(i64 4, ptr %17) #4
  call void @llvm.lifetime.end.p0(i64 4, ptr %16) #4
  call void @llvm.lifetime.end.p0(i64 8, ptr %15) #4
  call void @llvm.lifetime.end.p0(i64 8, ptr %14) #4
  %252 = load i32, ptr %7, align 4
  ret i32 %252
}