; Function Attrs: mustprogress nofree nosync nounwind willreturn memory(argmem: readwrite) uwtable
define range(i32 -22, 1) i32 @ff_scale_adjust_dimensions(ptr noundef readonly captures(none) %0, ptr noundef captures(none) %1, ptr noundef captures(none) %2, i32 noundef %3, i32 noundef %4, double noundef %5) local_unnamed_addr #3 {
  %7 = load i32, ptr %1, align 4, !tbaa !30
  %8 = sext i32 %7 to i64
  %9 = load i32, ptr %2, align 4, !tbaa !30
  %10 = icmp slt i32 %7, -1
  %11 = sub i32 0, %7
  %spec.select = select i1 %10, i32 %11, i32 1
  %12 = icmp slt i32 %9, -1
  %13 = sub i32 0, %9
  %.081 = select i1 %12, i32 %13, i32 1
  %14 = icmp slt i32 %7, 0
  %15 = icmp slt i32 %9, 0
  %or.cond = select i1 %14, i1 %15, i1 false
  br i1 %or.cond, label %16, label %24

16:                                               ; preds = %6
  %17 = getelementptr inbounds nuw i8, ptr %0, i64 40
  %18 = load i32, ptr %17, align 8, !tbaa !19
  %19 = sitofp i32 %18 to double
  %20 = fmul nsz double %5, %19
  %21 = fptosi double %20 to i64
  %22 = getelementptr inbounds nuw i8, ptr %0, i64 44
  %23 = load i32, ptr %22, align 4, !tbaa !22
  br label %24

24:                                               ; preds = %16, %6
  %.083.in = phi i32 [ %23, %16 ], [ %9, %6 ]
  %.080 = phi i64 [ %21, %16 ], [ %8, %6 ]
  %.083 = sext i32 %.083.in to i64
  %25 = icmp slt i64 %.080, 0
  br i1 %25, label %26, label %39

26:                                               ; preds = %24
  %27 = getelementptr inbounds nuw i8, ptr %0, i64 40
  %28 = load i32, ptr %27, align 8, !tbaa !19
  %29 = sitofp i32 %28 to double
  %30 = fmul nsz double %5, %29
  %31 = fptosi double %30 to i64
  %32 = getelementptr inbounds nuw i8, ptr %0, i64 44
  %33 = load i32, ptr %32, align 4, !tbaa !22
  %34 = mul nsw i32 %33, %spec.select
  %35 = sext i32 %34 to i64
  %36 = tail call i64 @av_rescale(i64 noundef %.083, i64 noundef %31, i64 noundef %35) #7
  %37 = sext i32 %spec.select to i64
  %38 = mul nsw i64 %36, %37
  br label %39

39:                                               ; preds = %26, %24
  %.1 = phi i64 [ %38, %26 ], [ %.080, %24 ]
  %40 = icmp slt i32 %.083.in, 0
  br i1 %40, label %41, label %55

41:                                               ; preds = %39
  %42 = getelementptr inbounds nuw i8, ptr %0, i64 44
  %43 = load i32, ptr %42, align 4, !tbaa !22
  %44 = sext i32 %43 to i64
  %45 = getelementptr inbounds nuw i8, ptr %0, i64 40
  %46 = load i32, ptr %45, align 8, !tbaa !19
  %47 = sitofp i32 %46 to double
  %48 = fmul nsz double %5, %47
  %49 = sitofp i32 %.081 to double
  %50 = fmul nsz double %48, %49
  %51 = fptosi double %50 to i64
  %52 = tail call i64 @av_rescale(i64 noundef %.1, i64 noundef %44, i64 noundef %51) #7
  %53 = sext i32 %.081 to i64
  %54 = mul nsw i64 %52, %53
  br label %55

55:                                               ; preds = %41, %39
  %.184 = phi i64 [ %54, %41 ], [ %.083, %39 ]
  %.not = icmp eq i32 %3, 0
  br i1 %.not, label %93, label %56

56:                                               ; preds = %55
  %57 = getelementptr inbounds nuw i8, ptr %0, i64 40
  %58 = load i32, ptr %57, align 8, !tbaa !19
  %59 = sitofp i32 %58 to double
  %60 = fmul nsz double %5, %59
  %61 = fptosi double %60 to i64
  %62 = getelementptr inbounds nuw i8, ptr %0, i64 44
  %63 = load i32, ptr %62, align 4, !tbaa !22
  %64 = sext i32 %63 to i64
  %65 = sext i32 %4 to i64
  %66 = mul nsw i64 %64, %65
  %67 = tail call i64 @av_rescale(i64 noundef %.184, i64 noundef %61, i64 noundef %66) #7
  %68 = mul nsw i64 %67, %65
  %69 = sitofp i32 %4 to double
  %70 = fmul nsz double %60, %69
  %71 = fptosi double %70 to i64
  %72 = tail call i64 @av_rescale(i64 noundef %.1, i64 noundef %64, i64 noundef %71) #7
  %73 = mul nsw i64 %72, %65
  %74 = icmp eq i32 %3, 1
  %75 = icmp sgt i32 %4, 1
  br i1 %74, label %76, label %82

76:                                               ; preds = %56
  %77 = tail call i64 @llvm.smin.i64(i64 %68, i64 %.1)
  %.fr94 = freeze i64 %77
  %78 = tail call i64 @llvm.smin.i64(i64 %73, i64 %.184)
  %.fr95 = freeze i64 %78
  br i1 %75, label %79, label %93

79:                                               ; preds = %76
  %80 = srem i64 %.fr94, %65
  %81 = sub nsw i64 %.fr94, %80
  br label %.sink.split

82:                                               ; preds = %56
  %83 = tail call i64 @llvm.smax.i64(i64 %68, i64 %.1)
  %.fr = freeze i64 %83
  %84 = tail call i64 @llvm.smax.i64(i64 %73, i64 %.184)
  %.fr93 = freeze i64 %84
  br i1 %75, label %85, label %93

85:                                               ; preds = %82
  %86 = add nsw i64 %65, -1
  %87 = add i64 %86, %.fr
  %88 = srem i64 %87, %65
  %89 = sub nsw i64 %87, %88
  %90 = add i64 %86, %.fr93
  br label %.sink.split

.sink.split:                                      ; preds = %85, %79
  %.fr95.sink99 = phi i64 [ %.fr95, %79 ], [ %90, %85 ]
  %.2.ph = phi i64 [ %81, %79 ], [ %89, %85 ]
  %91 = srem i64 %.fr95.sink99, %65
  %92 = sub nsw i64 %.fr95.sink99, %91
  br label %93

93:                                               ; preds = %.sink.split, %76, %82, %55
  %.285 = phi i64 [ %.184, %55 ], [ %.fr95, %76 ], [ %.fr93, %82 ], [ %92, %.sink.split ]
  %.2 = phi i64 [ %.1, %55 ], [ %.fr94, %76 ], [ %.fr, %82 ], [ %.2.ph, %.sink.split ]
  %94 = add i64 %.2, 2147483648
  %.not96 = icmp ult i64 %94, 4294967296
  %95 = add i64 %.285, 2147483648
  %.not97 = icmp ult i64 %95, 4294967296
  %or.cond98 = select i1 %.not96, i1 %.not97, i1 false
  br i1 %or.cond98, label %96, label %99

96:                                               ; preds = %93
  %97 = trunc nsw i64 %.2 to i32
  %98 = trunc nsw i64 %.285 to i32
  store i32 %97, ptr %1, align 4, !tbaa !30
  store i32 %98, ptr %2, align 4, !tbaa !30
  br label %99

99:                                               ; preds = %93, %96
  %.0 = phi i32 [ 0, %96 ], [ -22, %93 ]
  ret i32 %.0
}